target datalayout = "e-m:e-p270:32:32-p271:32:32-p272:64:64-i64:64-i128:128-f80:128-n8:16:32:64-S128"
target triple = "x86_64-pc-linux-gnu"

%struct.Abc_Cex_t_ = type { i32, i32, i32, i32, i32, [0 x i32] }

; Function Attrs: inlinehint nounwind uwtable
define internal i32 @Abc_CexOnes32(i32 noundef %0) #2 {
  %2 = alloca i32, align 4
  store i32 %0, ptr %2, align 4, !tbaa !3
  %3 = load i32, ptr %2, align 4, !tbaa !3
  %4 = load i32, ptr %2, align 4, !tbaa !3
  %5 = lshr i32 %4, 1
  %6 = and i32 %5, 1431655765
  %7 = sub i32 %3, %6
  store i32 %7, ptr %2, align 4, !tbaa !3
  %8 = load i32, ptr %2, align 4, !tbaa !3
  %9 = and i32 %8, 858993459
  %10 = load i32, ptr %2, align 4, !tbaa !3
  %11 = lshr i32 %10, 2
  %12 = and i32 %11, 858993459
  %13 = add i32 %9, %12
  store i32 %13, ptr %2, align 4, !tbaa !3
  %14 = load i32, ptr %2, align 4, !tbaa !3
  %15 = load i32, ptr %2, align 4, !tbaa !3
  %16 = lshr i32 %15, 4
  %17 = add i32 %14, %16
  %18 = and i32 %17, 252645135
  store i32 %18, ptr %2, align 4, !tbaa !3
  %19 = load i32, ptr %2, align 4, !tbaa !3
  %20 = mul i32 %19, 16843009
  %21 = lshr i32 %20, 24
  ret i32 %21
}

; Function Attrs: inlinehint nounwind uwtable
define internal i32 @Abc_BitWordNum(i32 noundef %0) #2 {
  %2 = alloca i32, align 4
  store i32 %0, ptr %2, align 4, !tbaa !3
  %3 = load i32, ptr %2, align 4, !tbaa !3
  %4 = ashr i32 %3, 5
  %5 = load i32, ptr %2, align 4, !tbaa !3
  %6 = and i32 %5, 31
  %7 = icmp sgt i32 %6, 0
  %8 = zext i1 %7 to i32
  %9 = add nsw i32 %4, %8
  ret i32 %9
}

; Function Attrs: nounwind uwtable
define i32 @Abc_CexCountOnes(ptr noundef %0) #0 {
  %2 = alloca ptr, align 8
  %3 = alloca i32, align 4
  %4 = alloca i32, align 4
  %5 = alloca i32, align 4
  store ptr %0, ptr %2, align 8, !tbaa !7
  call void @llvm.lifetime.start.p0(i64 4, ptr %3) #8
  %6 = load ptr, ptr %2, align 8, !tbaa !7
  %7 = getelementptr inbounds nuw %struct.Abc_Cex_t_, ptr %6, i32 0, i32 4
  %8 = load i32, ptr %7, align 4, !tbaa !13
  %9 = call i32 @Abc_BitWordNum(i32 noundef %8)
  store i32 %9, ptr %3, align 4, !tbaa !3
  call void @llvm.lifetime.start.p0(i64 4, ptr %4) #8
  call void @llvm.lifetime.start.p0(i64 4, ptr %5) #8
  store i32 0, ptr %5, align 4, !tbaa !3
  store i32 0, ptr %4, align 4, !tbaa !3
  br label %10

10:                                               ; preds = %24, %1
  %11 = load i32, ptr %4, align 4, !tbaa !3
  %12 = load i32, ptr %3, align 4, !tbaa !3
  %13 = icmp slt i32 %11, %12
  br i1 %13, label %14, label %27

14:                                               ; preds = %10
  %15 = load ptr, ptr %2, align 8, !tbaa !7
  %16 = getelementptr inbounds nuw %struct.Abc_Cex_t_, ptr %15, i32 0, i32 5
  %17 = load i32, ptr %4, align 4, !tbaa !3
  %18 = sext i32 %17 to i64
  %19 = getelementptr inbounds [0 x i32], ptr %16, i64 0, i64 %18
  %20 = load i32, ptr %19, align 4, !tbaa !3
  %21 = call i32 @Abc_CexOnes32(i32 noundef %20)
  %22 = load i32, ptr %5, align 4, !tbaa !3
  %23 = add nsw i32 %22, %21
  store i32 %23, ptr %5, align 4, !tbaa !3
  br label %24

24:                                               ; preds = %14
  %25 = load i32, ptr %4, align 4, !tbaa !3
  %26 = add nsw i32 %25, 1
  store i32 %26, ptr %4, align 4, !tbaa !3
  br label %10, !llvm.loop !55

27:                                               ; preds = %10
  %28 = load i32, ptr %5, align 4, !tbaa !3
  call void @llvm.lifetime.end.p0(i64 4, ptr %5) #8
  call void @llvm.lifetime.end.p0(i64 4, ptr %4) #8
  call void @llvm.lifetime.end.p0(i64 4, ptr %3) #8
  ret i32 %28
}