; Function Attrs: nofree norecurse nosync nounwind memory(argmem: read) uwtable
define i32 @Abc_CexCountOnes(ptr noundef readonly captures(none) %0) local_unnamed_addr #11 {
  %2 = getelementptr inbounds nuw i8, ptr %0, i64 16
  %3 = load i32, ptr %2, align 4, !tbaa !9
  %4 = ashr i32 %3, 5
  %5 = and i32 %3, 31
  %6 = icmp ne i32 %5, 0
  %7 = zext i1 %6 to i32
  %8 = add nsw i32 %4, %7
  %9 = icmp sgt i32 %8, 0
  br i1 %9, label %.lr.ph, label %._crit_edge

.lr.ph:                                           ; preds = %1
  %10 = getelementptr inbounds nuw i8, ptr %0, i64 20
  %wide.trip.count = zext nneg i32 %8 to i64
  br label %11

11:                                               ; preds = %.lr.ph, %11
  %indvars.iv = phi i64 [ 0, %.lr.ph ], [ %indvars.iv.next, %11 ]
  %.09 = phi i32 [ 0, %.lr.ph ], [ %15, %11 ]
  %12 = getelementptr inbounds nuw [0 x i32], ptr %10, i64 0, i64 %indvars.iv
  %13 = load i32, ptr %12, align 4, !tbaa !12
  %14 = tail call range(i32 0, 33) i32 @llvm.ctpop.i32(i32 %13)
  %15 = add nuw nsw i32 %14, %.09
  %indvars.iv.next = add nuw nsw i64 %indvars.iv, 1
  %exitcond.not = icmp eq i64 %indvars.iv.next, %wide.trip.count
  br i1 %exitcond.not, label %._crit_edge, label %11, !llvm.loop !49

._crit_edge:                                      ; preds = %11, %1
  %.0.lcssa = phi i32 [ 0, %1 ], [ %15, %11 ]
  ret i32 %.0.lcssa
}